; Function Attrs: mustprogress nofree norecurse nosync nounwind willreturn memory(read, inaccessiblemem: none) uwtable
define internal noundef double @"_ZNSt17_Function_handlerIFdRKSt6vectorImSaImEEEZN8QuantLib20laplaceInterpolationERNS6_6MatrixERKS0_IdSaIdEESC_dmE3$_0E9_M_invokeERKSt9_Any_dataS4_"(ptr nocapture noundef nonnull readonly align 8 dereferenceable(16) %__functor, ptr nocapture noundef nonnull readonly align 8 dereferenceable(24) %__args) #20 align 2 {
entry:
  %call.val = load ptr, ptr %__functor, align 8, !tbaa !371
  %__args.val = load ptr, ptr %__args, align 8, !tbaa !52
  %call.val.val = load ptr, ptr %call.val, align 8, !tbaa !43
  %0 = getelementptr i8, ptr %call.val, i64 16
  %call.val.val1 = load i64, ptr %0, align 8, !tbaa !184
  %__args.val.val = load i64, ptr %__args.val, align 8, !tbaa !50
  %1 = getelementptr i8, ptr %__args.val, i64 8
  %__args.val.val2 = load i64, ptr %1, align 8, !tbaa !50
  %mul.i.i.i.i = mul i64 %__args.val.val, %call.val.val1
  %2 = getelementptr double, ptr %call.val.val, i64 %mul.i.i.i.i
  %arrayidx.i.i.i.i.i = getelementptr double, ptr %2, i64 %__args.val.val2
  %3 = load double, ptr %arrayidx.i.i.i.i.i, align 8, !tbaa !83
  ret double %3
}